; Function Attrs: mustprogress nofree norecurse nosync nounwind willreturn memory(argmem: readwrite) uwtable
define void @_ZN2cv16BOWKMeansTrainerC2EiRKNS_12TermCriteriaEii(ptr nocapture noundef nonnull writeonly align 8 dereferenceable(64) %0, i32 noundef %1, ptr nocapture noundef nonnull readonly align 8 dereferenceable(16) %2, i32 noundef %3, i32 noundef %4) unnamed_addr #10 align 2 {
  %6 = getelementptr inbounds i8, ptr %0, i64 8
  tail call void @llvm.memset.p0.i64(ptr noundef nonnull align 8 dereferenceable(28) %6, i8 0, i64 28, i1 false)
  store ptr getelementptr inbounds inrange(-16, 40) (i8, ptr @_ZTVN2cv16BOWKMeansTrainerE, i64 16), ptr %0, align 8
  %7 = getelementptr inbounds i8, ptr %0, i64 36
  store i32 %1, ptr %7, align 4
  %8 = getelementptr inbounds i8, ptr %0, i64 40
  tail call void @llvm.memcpy.p0.p0.i64(ptr noundef nonnull align 8 dereferenceable(16) %8, ptr noundef nonnull align 8 dereferenceable(16) %2, i64 16, i1 false)
  %9 = getelementptr inbounds i8, ptr %0, i64 56
  store i32 %3, ptr %9, align 8
  %10 = getelementptr inbounds i8, ptr %0, i64 60
  store i32 %4, ptr %10, align 4
  ret void
}